target datalayout = "e-m:e-p270:32:32-p271:32:32-p272:64:64-i64:64-i128:128-f80:128-n8:16:32:64-S128"
target triple = "x86_64-pc-linux-gnu"

%struct.nghttp2_hd_context = type { %struct.nghttp2_hd_ringbuf, ptr, i64, i64, i32, i8 }
%struct.nghttp2_hd_ringbuf = type { ptr, i64, i64, i64 }
%struct.nghttp2_hd_inflater = type { %struct.nghttp2_hd_context, %struct.nghttp2_hd_huff_decode_context, %struct.nghttp2_buf, %struct.nghttp2_buf, ptr, ptr, ptr, ptr, i64, i64, i64, i64, i64, i32, i32, i8, i8, i8 }
%struct.nghttp2_hd_huff_decode_context = type { i16 }
%struct.nghttp2_buf = type { ptr, ptr, ptr, ptr, ptr }

; Function Attrs: nounwind uwtable
define internal i64 @hd_inflate_read_huff(ptr noundef %0, ptr noundef %1, ptr noundef %2, ptr noundef %3) #0 {
  %5 = alloca i64, align 8
  %6 = alloca ptr, align 8
  %7 = alloca ptr, align 8
  %8 = alloca ptr, align 8
  %9 = alloca ptr, align 8
  %10 = alloca i64, align 8
  %11 = alloca i32, align 4
  %12 = alloca i32, align 4
  store ptr %0, ptr %6, align 8, !tbaa !53
  store ptr %1, ptr %7, align 8, !tbaa !8
  store ptr %2, ptr %8, align 8, !tbaa !86
  store ptr %3, ptr %9, align 8, !tbaa !86
  call void @llvm.lifetime.start.p0(i64 8, ptr %10) #8
  call void @llvm.lifetime.start.p0(i64 4, ptr %11) #8
  store i32 0, ptr %11, align 4, !tbaa !12
  %13 = load ptr, ptr %9, align 8, !tbaa !86
  %14 = load ptr, ptr %8, align 8, !tbaa !86
  %15 = ptrtoint ptr %13 to i64
  %16 = ptrtoint ptr %14 to i64
  %17 = sub i64 %15, %16
  %18 = load ptr, ptr %6, align 8, !tbaa !53
  %19 = getelementptr inbounds nuw %struct.nghttp2_hd_inflater, ptr %18, i32 0, i32 8
  %20 = load i64, ptr %19, align 8, !tbaa !69
  %21 = icmp uge i64 %17, %20
  br i1 %21, label %22, label %28

22:                                               ; preds = %4
  %23 = load ptr, ptr %8, align 8, !tbaa !86
  %24 = load ptr, ptr %6, align 8, !tbaa !53
  %25 = getelementptr inbounds nuw %struct.nghttp2_hd_inflater, ptr %24, i32 0, i32 8
  %26 = load i64, ptr %25, align 8, !tbaa !69
  %27 = getelementptr inbounds nuw i8, ptr %23, i64 %26
  store ptr %27, ptr %9, align 8, !tbaa !86
  store i32 1, ptr %11, align 4, !tbaa !12
  br label %28

28:                                               ; preds = %22, %4
  %29 = load ptr, ptr %6, align 8, !tbaa !53
  %30 = getelementptr inbounds nuw %struct.nghttp2_hd_inflater, ptr %29, i32 0, i32 1
  %31 = load ptr, ptr %7, align 8, !tbaa !8
  %32 = load ptr, ptr %8, align 8, !tbaa !86
  %33 = load ptr, ptr %9, align 8, !tbaa !86
  %34 = load ptr, ptr %8, align 8, !tbaa !86
  %35 = ptrtoint ptr %33 to i64
  %36 = ptrtoint ptr %34 to i64
  %37 = sub i64 %35, %36
  %38 = load i32, ptr %11, align 4, !tbaa !12
  %39 = call i64 @nghttp2_hd_huff_decode(ptr noundef %30, ptr noundef %31, ptr noundef %32, i64 noundef %37, i32 noundef %38)
  store i64 %39, ptr %10, align 8, !tbaa !37
  %40 = load i64, ptr %10, align 8, !tbaa !37
  %41 = icmp slt i64 %40, 0
  br i1 %41, label %42, label %47

42:                                               ; preds = %28
  br label %43

43:                                               ; preds = %42
  br label %44

44:                                               ; preds = %43
  br label %45

45:                                               ; preds = %44
  %46 = load i64, ptr %10, align 8, !tbaa !37
  store i64 %46, ptr %5, align 8
  store i32 1, ptr %12, align 4
  br label %63

47:                                               ; preds = %28
  %48 = load ptr, ptr %6, align 8, !tbaa !53
  %49 = getelementptr inbounds nuw %struct.nghttp2_hd_inflater, ptr %48, i32 0, i32 1
  %50 = call i32 @nghttp2_hd_huff_decode_failure_state(ptr noundef %49)
  %51 = icmp ne i32 %50, 0
  br i1 %51, label %52, label %56

52:                                               ; preds = %47
  br label %53

53:                                               ; preds = %52
  br label %54

54:                                               ; preds = %53
  br label %55

55:                                               ; preds = %54
  store i64 -523, ptr %5, align 8
  store i32 1, ptr %12, align 4
  br label %63

56:                                               ; preds = %47
  %57 = load i64, ptr %10, align 8, !tbaa !37
  %58 = load ptr, ptr %6, align 8, !tbaa !53
  %59 = getelementptr inbounds nuw %struct.nghttp2_hd_inflater, ptr %58, i32 0, i32 8
  %60 = load i64, ptr %59, align 8, !tbaa !69
  %61 = sub i64 %60, %57
  store i64 %61, ptr %59, align 8, !tbaa !69
  %62 = load i64, ptr %10, align 8, !tbaa !37
  store i64 %62, ptr %5, align 8
  store i32 1, ptr %12, align 4
  br label %63

63:                                               ; preds = %56, %55, %45
  call void @llvm.lifetime.end.p0(i64 4, ptr %11) #8
  call void @llvm.lifetime.end.p0(i64 8, ptr %10) #8
  %64 = load i64, ptr %5, align 8
  ret i64 %64
}