; Function Attrs: nounwind uwtable
define internal fastcc i64 @hd_inflate_read_huff(ptr noundef %0, ptr noundef %1, ptr noundef %2, ptr noundef %3) unnamed_addr #0 {
  %5 = ptrtoint ptr %3 to i64
  %6 = ptrtoint ptr %2 to i64
  %7 = sub i64 %5, %6
  %8 = getelementptr inbounds nuw i8, ptr %0, i64 184
  %9 = load i64, ptr %8, align 8, !tbaa !104
  %.not = icmp uge i64 %7, %9
  %10 = getelementptr inbounds nuw i8, ptr %2, i64 %9
  %spec.select = select i1 %.not, ptr %10, ptr %3
  %spec.select22 = zext i1 %.not to i32
  %11 = getelementptr inbounds nuw i8, ptr %0, i64 64
  %12 = ptrtoint ptr %spec.select to i64
  %13 = sub i64 %12, %6
  %14 = tail call i64 @nghttp2_hd_huff_decode(ptr noundef nonnull %11, ptr noundef %1, ptr noundef %2, i64 noundef %13, i32 noundef %spec.select22) #12
  %15 = icmp slt i64 %14, 0
  br i1 %15, label %21, label %16

16:                                               ; preds = %4
  %17 = tail call i32 @nghttp2_hd_huff_decode_failure_state(ptr noundef nonnull %11) #12
  %.not21 = icmp eq i32 %17, 0
  br i1 %.not21, label %18, label %21

18:                                               ; preds = %16
  %19 = load i64, ptr %8, align 8, !tbaa !104
  %20 = sub i64 %19, %14
  store i64 %20, ptr %8, align 8, !tbaa !104
  br label %21

21:                                               ; preds = %16, %4, %18
  %.017 = phi i64 [ %14, %18 ], [ %14, %4 ], [ -523, %16 ]
  ret i64 %.017
}